; Function Attrs: nounwind uwtable
define internal noundef ptr @zend_user_it_get_iterator(ptr nocapture readnone %0, ptr nocapture noundef readonly %1, i32 noundef %2) #0 {
  %.not = icmp eq i32 %2, 0
  br i1 %.not, label %5, label %4

4:                                                ; preds = %3
  tail call void (ptr, ptr, ...) @zend_throw_error(ptr noundef null, ptr noundef nonnull @.str.22) #9
  br label %18

5:                                                ; preds = %3
  %6 = tail call noalias ptr @_emalloc_112() #9
  tail call void @zend_iterator_init(ptr noundef %6) #9
  %7 = getelementptr inbounds i8, ptr %6, i64 56
  %8 = load ptr, ptr %1, align 8
  %9 = load i32, ptr %8, align 4
  %10 = add i32 %9, 1
  store i32 %10, ptr %8, align 4
  store ptr %8, ptr %7, align 8
  %11 = getelementptr inbounds i8, ptr %6, i64 64
  store i32 776, ptr %11, align 8
  %12 = getelementptr inbounds i8, ptr %6, i64 72
  store ptr @zend_interface_iterator_funcs_iterator, ptr %12, align 8
  %13 = load ptr, ptr %1, align 8
  %14 = getelementptr inbounds i8, ptr %13, i64 16
  %15 = load ptr, ptr %14, align 8
  %16 = getelementptr inbounds i8, ptr %6, i64 88
  store ptr %15, ptr %16, align 8
  %17 = getelementptr inbounds i8, ptr %6, i64 104
  store i32 0, ptr %17, align 8
  br label %18

18:                                               ; preds = %5, %4
  %.0 = phi ptr [ null, %4 ], [ %6, %5 ]
  ret ptr %.0
}